; Function Attrs: nounwind sspstrong uwtable
define dso_local void @rb_gc_obj_free_vm_weak_references(i64 noundef %0) local_unnamed_addr #0 {
  %2 = alloca i64, align 8
  %3 = icmp eq i64 %0, 0
  %4 = and i64 %0, 7
  %5 = icmp ne i64 %4, 0
  %6 = or i1 %3, %5
  %.pre = inttoptr i64 %0 to ptr
  br i1 %6, label %RB_FL_UNSET.exit, label %RB_FL_ABLE.exit.i

RB_FL_ABLE.exit.i:                                ; preds = %1
  %7 = load i64, ptr %.pre, align 8, !tbaa !113
  %8 = and i64 %7, 31
  %.not.i = icmp eq i64 %8, 27
  %9 = and i64 %7, 1024
  %.not = icmp eq i64 %9, 0
  %or.cond = or i1 %.not.i, %.not
  br i1 %or.cond, label %RB_FL_UNSET.exit, label %RB_FL_ABLE.exit.i12

RB_FL_ABLE.exit.i12:                              ; preds = %RB_FL_ABLE.exit.i
  tail call void @rb_free_generic_ivar(i64 noundef %0) #7
  %10 = load i64, ptr %.pre, align 8, !tbaa !113
  %11 = and i64 %10, 31
  %.not.i13 = icmp eq i64 %11, 27
  br i1 %.not.i13, label %RB_FL_UNSET.exit, label %12

12:                                               ; preds = %RB_FL_ABLE.exit.i12
  %13 = and i64 %10, -1025
  store i64 %13, ptr %.pre, align 8, !tbaa !113
  br label %RB_FL_UNSET.exit

RB_FL_UNSET.exit:                                 ; preds = %1, %RB_FL_ABLE.exit.i, %12, %RB_FL_ABLE.exit.i12
  %14 = load i64, ptr %.pre, align 8, !tbaa !113
  %15 = trunc i64 %14 to i32
  %16 = and i32 %15, 31
  switch i32 %16, label %RB_FL_TEST.exit18.thread [
    i32 5, label %17
    i32 20, label %26
    i32 26, label %27
  ]

17:                                               ; preds = %RB_FL_UNSET.exit
  br i1 %6, label %RB_FL_TEST.exit18.thread, label %RB_FL_ABLE.exit.i14

RB_FL_ABLE.exit.i14:                              ; preds = %17
  %18 = and i64 %14, 31
  %.not.i15 = icmp eq i64 %18, 27
  %19 = and i64 %14, 536870912
  %.not11 = icmp eq i64 %19, 0
  %or.cond27 = or i1 %.not.i15, %.not11
  br i1 %or.cond27, label %RB_FL_TEST.exit18.thread, label %RB_FL_ABLE.exit.i19

RB_FL_ABLE.exit.i19:                              ; preds = %RB_FL_ABLE.exit.i14
  call void @llvm.lifetime.start.p0(i64 8, ptr nonnull %2) #7
  store i64 %0, ptr %2, align 8, !tbaa !93
  %20 = tail call ptr @rb_vm_fstring_table() #67
  %21 = call i32 @rb_st_delete(ptr noundef %20, ptr noundef nonnull %2, ptr noundef null) #7
  %22 = load i64, ptr %.pre, align 8, !tbaa !113
  %23 = and i64 %22, 31
  %.not.i20 = icmp eq i64 %23, 27
  br i1 %.not.i20, label %RB_FL_UNSET.exit21, label %24

24:                                               ; preds = %RB_FL_ABLE.exit.i19
  %25 = and i64 %22, -536870913
  store i64 %25, ptr %.pre, align 8, !tbaa !113
  br label %RB_FL_UNSET.exit21

RB_FL_UNSET.exit21:                               ; preds = %RB_FL_ABLE.exit.i19, %24
  call void @llvm.lifetime.end.p0(i64 8, ptr nonnull %2) #7
  br label %RB_FL_TEST.exit18.thread

26:                                               ; preds = %RB_FL_UNSET.exit
  tail call void @rb_gc_free_dsymbol(i64 noundef %0) #7
  br label %RB_FL_TEST.exit18.thread

27:                                               ; preds = %RB_FL_UNSET.exit
  %28 = lshr i32 %15, 12
  %29 = and i32 %28, 15
  switch i32 %29, label %RB_FL_TEST.exit18.thread [
    i32 11, label %30
    i32 6, label %31
  ]

30:                                               ; preds = %27
  tail call void @rb_vm_ci_free(ptr noundef nonnull %.pre) #7
  br label %RB_FL_TEST.exit18.thread

31:                                               ; preds = %27
  tail call void @rb_free_method_entry_vm_weak_references(ptr noundef nonnull %.pre) #7
  br label %RB_FL_TEST.exit18.thread

RB_FL_TEST.exit18.thread:                         ; preds = %RB_FL_ABLE.exit.i14, %17, %RB_FL_UNSET.exit, %30, %31, %27, %RB_FL_UNSET.exit21, %26
  ret void
}